
/home/steven/p1_2021ysyx/code/oscpu/libraries/ysyxSoC/ysyx/program/src/memtest/build/memtest-riscv64-mycpu.elf:     file format elf64-littleriscv


Disassembly of section .text:

0000000030000000 <_start>:
    30000000:	00000413          	li	s0,0
    30000004:	50100117          	auipc	sp,0x50100
    30000008:	ffc10113          	addi	sp,sp,-4 # 80100000 <_end>
    3000000c:	108000ef          	jal	ra,30000114 <_trm_init>

0000000030000010 <main>:
    30000010:	ff010113          	addi	sp,sp,-16
    30000014:	00813023          	sd	s0,0(sp)
    30000018:	00113423          	sd	ra,8(sp)
    3000001c:	00000417          	auipc	s0,0x0
    30000020:	17440413          	addi	s0,s0,372 # 30000190 <_etext>
    30000024:	05300513          	li	a0,83
    30000028:	00140413          	addi	s0,s0,1
    3000002c:	0d8000ef          	jal	ra,30000104 <putch>
    30000030:	00044503          	lbu	a0,0(s0)
    30000034:	fe051ae3          	bnez	a0,30000028 <main+0x18>
    30000038:	40100713          	li	a4,1025
    3000003c:	01571713          	slli	a4,a4,0x15
    30000040:	00000793          	li	a5,0
    30000044:	000016b7          	lui	a3,0x1
    30000048:	00f71023          	sh	a5,0(a4)
    3000004c:	0017879b          	addiw	a5,a5,1
    30000050:	00270713          	addi	a4,a4,2
    30000054:	fed79ae3          	bne	a5,a3,30000048 <main+0x38>
    30000058:	00000417          	auipc	s0,0x0
    3000005c:	14840413          	addi	s0,s0,328 # 300001a0 <_etext+0x10>
    30000060:	04100513          	li	a0,65
    30000064:	00140413          	addi	s0,s0,1
    30000068:	09c000ef          	jal	ra,30000104 <putch>
    3000006c:	00044503          	lbu	a0,0(s0)
    30000070:	fe051ae3          	bnez	a0,30000064 <main+0x54>
    30000074:	40100713          	li	a4,1025
    30000078:	01571713          	slli	a4,a4,0x15
    3000007c:	00000793          	li	a5,0
    30000080:	00001637          	lui	a2,0x1
    30000084:	00075683          	lhu	a3,0(a4)
    30000088:	02f69e63          	bne	a3,a5,300000c4 <main+0xb4>
    3000008c:	0017879b          	addiw	a5,a5,1
    30000090:	00270713          	addi	a4,a4,2
    30000094:	fec798e3          	bne	a5,a2,30000084 <main+0x74>
    30000098:	00000417          	auipc	s0,0x0
    3000009c:	19840413          	addi	s0,s0,408 # 30000230 <_etext+0xa0>
    300000a0:	04100513          	li	a0,65
    300000a4:	00140413          	addi	s0,s0,1
    300000a8:	05c000ef          	jal	ra,30000104 <putch>
    300000ac:	00044503          	lbu	a0,0(s0)
    300000b0:	fe051ae3          	bnez	a0,300000a4 <main+0x94>
    300000b4:	00813083          	ld	ra,8(sp)
    300000b8:	00013403          	ld	s0,0(sp)
    300000bc:	01010113          	addi	sp,sp,16
    300000c0:	00008067          	ret
    300000c4:	00000417          	auipc	s0,0x0
    300000c8:	0f440413          	addi	s0,s0,244 # 300001b8 <_etext+0x28>
    300000cc:	04100513          	li	a0,65
    300000d0:	00140413          	addi	s0,s0,1
    300000d4:	030000ef          	jal	ra,30000104 <putch>
    300000d8:	00044503          	lbu	a0,0(s0)
    300000dc:	fe051ae3          	bnez	a0,300000d0 <main+0xc0>
    300000e0:	00000417          	auipc	s0,0x0
    300000e4:	0e840413          	addi	s0,s0,232 # 300001c8 <_etext+0x38>
    300000e8:	02000513          	li	a0,32
    300000ec:	00140413          	addi	s0,s0,1
    300000f0:	014000ef          	jal	ra,30000104 <putch>
    300000f4:	00044503          	lbu	a0,0(s0)
    300000f8:	fe051ae3          	bnez	a0,300000ec <main+0xdc>
    300000fc:	00100513          	li	a0,1
    30000100:	008000ef          	jal	ra,30000108 <halt>

0000000030000104 <putch>:
    30000104:	0740006f          	j	30000178 <drv_uart_putc>

0000000030000108 <halt>:
    30000108:	00050513          	mv	a0,a0
    3000010c:	0000006b          	0x6b
    30000110:	0000006f          	j	30000110 <halt+0x8>

0000000030000114 <_trm_init>:
    30000114:	ff010113          	addi	sp,sp,-16
    30000118:	00113423          	sd	ra,8(sp)
    3000011c:	01c000ef          	jal	ra,30000138 <virt_uart_init>
    30000120:	00000517          	auipc	a0,0x0
    30000124:	12850513          	addi	a0,a0,296 # 30000248 <mainargs>
    30000128:	ee9ff0ef          	jal	ra,30000010 <main>
    3000012c:	00050513          	mv	a0,a0
    30000130:	0000006b          	0x6b
    30000134:	0000006f          	j	30000134 <_trm_init+0x20>

0000000030000138 <virt_uart_init>:
    30000138:	100007b7          	lui	a5,0x10000
    3000013c:	000780a3          	sb	zero,1(a5) # 10000001 <_entry_offset+0x10000001>
    30000140:	0037c703          	lbu	a4,3(a5)
    30000144:	f8076713          	ori	a4,a4,-128
    30000148:	0ff77713          	andi	a4,a4,255
    3000014c:	00e781a3          	sb	a4,3(a5)
    30000150:	00100713          	li	a4,1
    30000154:	00e78023          	sb	a4,0(a5)
    30000158:	000780a3          	sb	zero,1(a5)
    3000015c:	00300713          	li	a4,3
    30000160:	00e781a3          	sb	a4,3(a5)
    30000164:	0017c703          	lbu	a4,1(a5)
    30000168:	0ff77713          	andi	a4,a4,255
    3000016c:	00176713          	ori	a4,a4,1
    30000170:	00e780a3          	sb	a4,1(a5)
    30000174:	00008067          	ret

0000000030000178 <drv_uart_putc>:
    30000178:	10000737          	lui	a4,0x10000
    3000017c:	00574783          	lbu	a5,5(a4) # 10000005 <_entry_offset+0x10000005>
    30000180:	0207f793          	andi	a5,a5,32
    30000184:	fe078ce3          	beqz	a5,3000017c <drv_uart_putc+0x4>
    30000188:	00a70023          	sb	a0,0(a4)
    3000018c:	00008067          	ret
