
/home/steven/p1_2021ysyx/code/am-kernels/tests/cpu-tests/build/goldbach-riscv64-mycpu.elf:     file format elf64-littleriscv


Disassembly of section .text:

0000000080000000 <_start>:
    80000000:	00000413          	li	s0,0
    80000004:	00009117          	auipc	sp,0x9
    80000008:	ffc10113          	addi	sp,sp,-4 # 80009000 <_end>
    8000000c:	164000ef          	jal	ra,80000170 <_trm_init>

0000000080000010 <check>:
    80000010:	00050463          	beqz	a0,80000018 <check+0x8>
    80000014:	00008067          	ret
    80000018:	ff010113          	addi	sp,sp,-16
    8000001c:	00100513          	li	a0,1
    80000020:	00113423          	sd	ra,8(sp)
    80000024:	140000ef          	jal	ra,80000164 <halt>

0000000080000028 <goldbach>:
    80000028:	00200793          	li	a5,2
    8000002c:	0ea7d263          	bge	a5,a0,80000110 <goldbach+0xe8>
    80000030:	fc010113          	addi	sp,sp,-64
    80000034:	02813823          	sd	s0,48(sp)
    80000038:	03213023          	sd	s2,32(sp)
    8000003c:	01413823          	sd	s4,16(sp)
    80000040:	01513423          	sd	s5,8(sp)
    80000044:	01613023          	sd	s6,0(sp)
    80000048:	02113c23          	sd	ra,56(sp)
    8000004c:	02913423          	sd	s1,40(sp)
    80000050:	01313c23          	sd	s3,24(sp)
    80000054:	00050a93          	mv	s5,a0
    80000058:	ffe5091b          	addiw	s2,a0,-2
    8000005c:	00200413          	li	s0,2
    80000060:	00200a13          	li	s4,2
    80000064:	00100b13          	li	s6,1
    80000068:	03440863          	beq	s0,s4,80000098 <goldbach+0x70>
    8000006c:	00147793          	andi	a5,s0,1
    80000070:	08078663          	beqz	a5,800000fc <goldbach+0xd4>
    80000074:	00200493          	li	s1,2
    80000078:	0100006f          	j	80000088 <goldbach+0x60>
    8000007c:	1d8000ef          	jal	ra,80000254 <__moddi3>
    80000080:	0005051b          	sext.w	a0,a0
    80000084:	06050c63          	beqz	a0,800000fc <goldbach+0xd4>
    80000088:	0014849b          	addiw	s1,s1,1
    8000008c:	00040513          	mv	a0,s0
    80000090:	00048593          	mv	a1,s1
    80000094:	fe8494e3          	bne	s1,s0,8000007c <goldbach+0x54>
    80000098:	0009099b          	sext.w	s3,s2
    8000009c:	07690063          	beq	s2,s6,800000fc <goldbach+0xd4>
    800000a0:	03498863          	beq	s3,s4,800000d0 <goldbach+0xa8>
    800000a4:	00197793          	andi	a5,s2,1
    800000a8:	04078a63          	beqz	a5,800000fc <goldbach+0xd4>
    800000ac:	00200493          	li	s1,2
    800000b0:	0100006f          	j	800000c0 <goldbach+0x98>
    800000b4:	1a0000ef          	jal	ra,80000254 <__moddi3>
    800000b8:	0005051b          	sext.w	a0,a0
    800000bc:	04050063          	beqz	a0,800000fc <goldbach+0xd4>
    800000c0:	0014849b          	addiw	s1,s1,1
    800000c4:	00098513          	mv	a0,s3
    800000c8:	00048593          	mv	a1,s1
    800000cc:	fe9994e3          	bne	s3,s1,800000b4 <goldbach+0x8c>
    800000d0:	00100513          	li	a0,1
    800000d4:	03813083          	ld	ra,56(sp)
    800000d8:	03013403          	ld	s0,48(sp)
    800000dc:	02813483          	ld	s1,40(sp)
    800000e0:	02013903          	ld	s2,32(sp)
    800000e4:	01813983          	ld	s3,24(sp)
    800000e8:	01013a03          	ld	s4,16(sp)
    800000ec:	00813a83          	ld	s5,8(sp)
    800000f0:	00013b03          	ld	s6,0(sp)
    800000f4:	04010113          	addi	sp,sp,64
    800000f8:	00008067          	ret
    800000fc:	0014041b          	addiw	s0,s0,1
    80000100:	fff9091b          	addiw	s2,s2,-1
    80000104:	f68a92e3          	bne	s5,s0,80000068 <goldbach+0x40>
    80000108:	00000513          	li	a0,0
    8000010c:	fc9ff06f          	j	800000d4 <goldbach+0xac>
    80000110:	00000513          	li	a0,0
    80000114:	00008067          	ret

0000000080000118 <main>:
    80000118:	fe010113          	addi	sp,sp,-32
    8000011c:	00813823          	sd	s0,16(sp)
    80000120:	00913423          	sd	s1,8(sp)
    80000124:	00113c23          	sd	ra,24(sp)
    80000128:	00400413          	li	s0,4
    8000012c:	02000493          	li	s1,32
    80000130:	00040513          	mv	a0,s0
    80000134:	ef5ff0ef          	jal	ra,80000028 <goldbach>
    80000138:	fff50513          	addi	a0,a0,-1
    8000013c:	0024041b          	addiw	s0,s0,2
    80000140:	00153513          	seqz	a0,a0
    80000144:	ecdff0ef          	jal	ra,80000010 <check>
    80000148:	fe9414e3          	bne	s0,s1,80000130 <main+0x18>
    8000014c:	01813083          	ld	ra,24(sp)
    80000150:	01013403          	ld	s0,16(sp)
    80000154:	00813483          	ld	s1,8(sp)
    80000158:	00000513          	li	a0,0
    8000015c:	02010113          	addi	sp,sp,32
    80000160:	00008067          	ret

0000000080000164 <halt>:
    80000164:	00050513          	mv	a0,a0
    80000168:	0000006b          	0x6b
    8000016c:	0000006f          	j	8000016c <halt+0x8>

0000000080000170 <_trm_init>:
    80000170:	ff010113          	addi	sp,sp,-16
    80000174:	00000517          	auipc	a0,0x0
    80000178:	11c50513          	addi	a0,a0,284 # 80000290 <_etext>
    8000017c:	00113423          	sd	ra,8(sp)
    80000180:	f99ff0ef          	jal	ra,80000118 <main>
    80000184:	00050513          	mv	a0,a0
    80000188:	0000006b          	0x6b
    8000018c:	0000006f          	j	8000018c <_trm_init+0x1c>

0000000080000190 <__udivsi3>:
    80000190:	02051513          	slli	a0,a0,0x20
    80000194:	02059593          	slli	a1,a1,0x20
    80000198:	00008293          	mv	t0,ra
    8000019c:	03c000ef          	jal	ra,800001d8 <__udivdi3>
    800001a0:	0005051b          	sext.w	a0,a0
    800001a4:	00028067          	jr	t0

00000000800001a8 <__umodsi3>:
    800001a8:	02051513          	slli	a0,a0,0x20
    800001ac:	02059593          	slli	a1,a1,0x20
    800001b0:	02055513          	srli	a0,a0,0x20
    800001b4:	0205d593          	srli	a1,a1,0x20
    800001b8:	00008293          	mv	t0,ra
    800001bc:	01c000ef          	jal	ra,800001d8 <__udivdi3>
    800001c0:	0005851b          	sext.w	a0,a1
    800001c4:	00028067          	jr	t0

00000000800001c8 <__divsi3>:
    800001c8:	fff00293          	li	t0,-1
    800001cc:	0a558c63          	beq	a1,t0,80000284 <__moddi3+0x30>

00000000800001d0 <__divdi3>:
    800001d0:	06054063          	bltz	a0,80000230 <__umoddi3+0x10>
    800001d4:	0605c663          	bltz	a1,80000240 <__umoddi3+0x20>

00000000800001d8 <__udivdi3>:
    800001d8:	00058613          	mv	a2,a1
    800001dc:	00050593          	mv	a1,a0
    800001e0:	fff00513          	li	a0,-1
    800001e4:	02060c63          	beqz	a2,8000021c <__udivdi3+0x44>
    800001e8:	00100693          	li	a3,1
    800001ec:	00b67a63          	bgeu	a2,a1,80000200 <__udivdi3+0x28>
    800001f0:	00c05863          	blez	a2,80000200 <__udivdi3+0x28>
    800001f4:	00161613          	slli	a2,a2,0x1
    800001f8:	00169693          	slli	a3,a3,0x1
    800001fc:	feb66ae3          	bltu	a2,a1,800001f0 <__udivdi3+0x18>
    80000200:	00000513          	li	a0,0
    80000204:	00c5e663          	bltu	a1,a2,80000210 <__udivdi3+0x38>
    80000208:	40c585b3          	sub	a1,a1,a2
    8000020c:	00d56533          	or	a0,a0,a3
    80000210:	0016d693          	srli	a3,a3,0x1
    80000214:	00165613          	srli	a2,a2,0x1
    80000218:	fe0696e3          	bnez	a3,80000204 <__udivdi3+0x2c>
    8000021c:	00008067          	ret

0000000080000220 <__umoddi3>:
    80000220:	00008293          	mv	t0,ra
    80000224:	fb5ff0ef          	jal	ra,800001d8 <__udivdi3>
    80000228:	00058513          	mv	a0,a1
    8000022c:	00028067          	jr	t0
    80000230:	40a00533          	neg	a0,a0
    80000234:	00b04863          	bgtz	a1,80000244 <__umoddi3+0x24>
    80000238:	40b005b3          	neg	a1,a1
    8000023c:	f9dff06f          	j	800001d8 <__udivdi3>
    80000240:	40b005b3          	neg	a1,a1
    80000244:	00008293          	mv	t0,ra
    80000248:	f91ff0ef          	jal	ra,800001d8 <__udivdi3>
    8000024c:	40a00533          	neg	a0,a0
    80000250:	00028067          	jr	t0

0000000080000254 <__moddi3>:
    80000254:	00008293          	mv	t0,ra
    80000258:	0005ca63          	bltz	a1,8000026c <__moddi3+0x18>
    8000025c:	00054c63          	bltz	a0,80000274 <__moddi3+0x20>
    80000260:	f79ff0ef          	jal	ra,800001d8 <__udivdi3>
    80000264:	00058513          	mv	a0,a1
    80000268:	00028067          	jr	t0
    8000026c:	40b005b3          	neg	a1,a1
    80000270:	fe0558e3          	bgez	a0,80000260 <__moddi3+0xc>
    80000274:	40a00533          	neg	a0,a0
    80000278:	f61ff0ef          	jal	ra,800001d8 <__udivdi3>
    8000027c:	40b00533          	neg	a0,a1
    80000280:	00028067          	jr	t0
    80000284:	01f29293          	slli	t0,t0,0x1f
    80000288:	f45514e3          	bne	a0,t0,800001d0 <__divdi3>
    8000028c:	00008067          	ret
