
/home/steven/p1_2021ysyx/code/am-kernels/tests/cpu-tests/build/if-else-riscv64-mycpu.elf:     file format elf64-littleriscv


Disassembly of section .text:

0000000080000000 <_start>:
    80000000:	00000413          	li	s0,0
    80000004:	00009117          	auipc	sp,0x9
    80000008:	ffc10113          	addi	sp,sp,-4 # 80009000 <_end>
    8000000c:	0ec000ef          	jal	ra,800000f8 <_trm_init>

0000000080000010 <check>:
    80000010:	00050463          	beqz	a0,80000018 <check+0x8>
    80000014:	00008067          	ret
    80000018:	ff010113          	addi	sp,sp,-16
    8000001c:	00100513          	li	a0,1
    80000020:	00113423          	sd	ra,8(sp)
    80000024:	0c8000ef          	jal	ra,800000ec <halt>

0000000080000028 <main>:
    80000028:	fc010113          	addi	sp,sp,-64
    8000002c:	02813823          	sd	s0,48(sp)
    80000030:	02913423          	sd	s1,40(sp)
    80000034:	03213023          	sd	s2,32(sp)
    80000038:	01313c23          	sd	s3,24(sp)
    8000003c:	01413823          	sd	s4,16(sp)
    80000040:	01513423          	sd	s5,8(sp)
    80000044:	01613023          	sd	s6,0(sp)
    80000048:	02113c23          	sd	ra,56(sp)
    8000004c:	00000417          	auipc	s0,0x0
    80000050:	10c40413          	addi	s0,s0,268 # 80000158 <test_data>
    80000054:	00000497          	auipc	s1,0x0
    80000058:	0cc48493          	addi	s1,s1,204 # 80000120 <ans>
    8000005c:	00000997          	auipc	s3,0x0
    80000060:	13498993          	addi	s3,s3,308 # 80000190 <_bss_start>
    80000064:	1f400913          	li	s2,500
    80000068:	12c00a93          	li	s5,300
    8000006c:	06400b13          	li	s6,100
    80000070:	03200a13          	li	s4,50
    80000074:	00042783          	lw	a5,0(s0)
    80000078:	09600713          	li	a4,150
    8000007c:	00440413          	addi	s0,s0,4
    80000080:	02f94063          	blt	s2,a5,800000a0 <main+0x78>
    80000084:	00fa2733          	slt	a4,s4,a5
    80000088:	40e006b3          	neg	a3,a4
    8000008c:	06400713          	li	a4,100
    80000090:	00fac863          	blt	s5,a5,800000a0 <main+0x78>
    80000094:	04b00713          	li	a4,75
    80000098:	00fb4463          	blt	s6,a5,800000a0 <main+0x78>
    8000009c:	0326f713          	andi	a4,a3,50
    800000a0:	0004a503          	lw	a0,0(s1)
    800000a4:	00448493          	addi	s1,s1,4
    800000a8:	40e50533          	sub	a0,a0,a4
    800000ac:	00153513          	seqz	a0,a0
    800000b0:	f61ff0ef          	jal	ra,80000010 <check>
    800000b4:	fd3410e3          	bne	s0,s3,80000074 <main+0x4c>
    800000b8:	00100513          	li	a0,1
    800000bc:	f55ff0ef          	jal	ra,80000010 <check>
    800000c0:	03813083          	ld	ra,56(sp)
    800000c4:	03013403          	ld	s0,48(sp)
    800000c8:	02813483          	ld	s1,40(sp)
    800000cc:	02013903          	ld	s2,32(sp)
    800000d0:	01813983          	ld	s3,24(sp)
    800000d4:	01013a03          	ld	s4,16(sp)
    800000d8:	00813a83          	ld	s5,8(sp)
    800000dc:	00013b03          	ld	s6,0(sp)
    800000e0:	00000513          	li	a0,0
    800000e4:	04010113          	addi	sp,sp,64
    800000e8:	00008067          	ret

00000000800000ec <halt>:
    800000ec:	00050513          	mv	a0,a0
    800000f0:	0000006b          	0x6b
    800000f4:	0000006f          	j	800000f4 <halt+0x8>

00000000800000f8 <_trm_init>:
    800000f8:	ff010113          	addi	sp,sp,-16
    800000fc:	00000517          	auipc	a0,0x0
    80000100:	01c50513          	addi	a0,a0,28 # 80000118 <_etext>
    80000104:	00113423          	sd	ra,8(sp)
    80000108:	f21ff0ef          	jal	ra,80000028 <main>
    8000010c:	00050513          	mv	a0,a0
    80000110:	0000006b          	0x6b
    80000114:	0000006f          	j	80000114 <_trm_init+0x1c>
