
/home/steven/p1_2021ysyx/code/am-kernels/tests/cpu-tests/build/leap-year-riscv64-mycpu.elf:     file format elf64-littleriscv


Disassembly of section .text:

0000000080000000 <_start>:
    80000000:	00000413          	li	s0,0
    80000004:	00009117          	auipc	sp,0x9
    80000008:	ffc10113          	addi	sp,sp,-4 # 80009000 <_end>
    8000000c:	0c8000ef          	jal	ra,800000d4 <_trm_init>

0000000080000010 <check>:
    80000010:	00050463          	beqz	a0,80000018 <check+0x8>
    80000014:	00008067          	ret
    80000018:	ff010113          	addi	sp,sp,-16
    8000001c:	00100513          	li	a0,1
    80000020:	00113423          	sd	ra,8(sp)
    80000024:	0a4000ef          	jal	ra,800000c8 <halt>

0000000080000028 <main>:
    80000028:	fd010113          	addi	sp,sp,-48
    8000002c:	02813023          	sd	s0,32(sp)
    80000030:	00913c23          	sd	s1,24(sp)
    80000034:	01313423          	sd	s3,8(sp)
    80000038:	02113423          	sd	ra,40(sp)
    8000003c:	01213823          	sd	s2,16(sp)
    80000040:	00000497          	auipc	s1,0x0
    80000044:	1c048493          	addi	s1,s1,448 # 80000200 <ans>
    80000048:	00000997          	auipc	s3,0x0
    8000004c:	3ac98993          	addi	s3,s3,940 # 800003f4 <_bss_start>
    80000050:	76200413          	li	s0,1890
    80000054:	0004091b          	sext.w	s2,s0
    80000058:	00347793          	andi	a5,s0,3
    8000005c:	06400593          	li	a1,100
    80000060:	00090513          	mv	a0,s2
    80000064:	00079a63          	bnez	a5,80000078 <main+0x50>
    80000068:	150000ef          	jal	ra,800001b8 <__moddi3>
    8000006c:	0005079b          	sext.w	a5,a0
    80000070:	00100513          	li	a0,1
    80000074:	00079c63          	bnez	a5,8000008c <main+0x64>
    80000078:	19000593          	li	a1,400
    8000007c:	00090513          	mv	a0,s2
    80000080:	138000ef          	jal	ra,800001b8 <__moddi3>
    80000084:	0005051b          	sext.w	a0,a0
    80000088:	00153513          	seqz	a0,a0
    8000008c:	0004a783          	lw	a5,0(s1)
    80000090:	00448493          	addi	s1,s1,4
    80000094:	0014041b          	addiw	s0,s0,1
    80000098:	40a78533          	sub	a0,a5,a0
    8000009c:	00153513          	seqz	a0,a0
    800000a0:	f71ff0ef          	jal	ra,80000010 <check>
    800000a4:	fb3498e3          	bne	s1,s3,80000054 <main+0x2c>
    800000a8:	02813083          	ld	ra,40(sp)
    800000ac:	02013403          	ld	s0,32(sp)
    800000b0:	01813483          	ld	s1,24(sp)
    800000b4:	01013903          	ld	s2,16(sp)
    800000b8:	00813983          	ld	s3,8(sp)
    800000bc:	00000513          	li	a0,0
    800000c0:	03010113          	addi	sp,sp,48
    800000c4:	00008067          	ret

00000000800000c8 <halt>:
    800000c8:	00050513          	mv	a0,a0
    800000cc:	0000006b          	0x6b
    800000d0:	0000006f          	j	800000d0 <halt+0x8>

00000000800000d4 <_trm_init>:
    800000d4:	ff010113          	addi	sp,sp,-16
    800000d8:	00000517          	auipc	a0,0x0
    800000dc:	12050513          	addi	a0,a0,288 # 800001f8 <mainargs>
    800000e0:	00113423          	sd	ra,8(sp)
    800000e4:	f45ff0ef          	jal	ra,80000028 <main>
    800000e8:	00050513          	mv	a0,a0
    800000ec:	0000006b          	0x6b
    800000f0:	0000006f          	j	800000f0 <_trm_init+0x1c>

00000000800000f4 <__udivsi3>:
    800000f4:	02051513          	slli	a0,a0,0x20
    800000f8:	02059593          	slli	a1,a1,0x20
    800000fc:	00008293          	mv	t0,ra
    80000100:	03c000ef          	jal	ra,8000013c <__udivdi3>
    80000104:	0005051b          	sext.w	a0,a0
    80000108:	00028067          	jr	t0

000000008000010c <__umodsi3>:
    8000010c:	02051513          	slli	a0,a0,0x20
    80000110:	02059593          	slli	a1,a1,0x20
    80000114:	02055513          	srli	a0,a0,0x20
    80000118:	0205d593          	srli	a1,a1,0x20
    8000011c:	00008293          	mv	t0,ra
    80000120:	01c000ef          	jal	ra,8000013c <__udivdi3>
    80000124:	0005851b          	sext.w	a0,a1
    80000128:	00028067          	jr	t0

000000008000012c <__divsi3>:
    8000012c:	fff00293          	li	t0,-1
    80000130:	0a558c63          	beq	a1,t0,800001e8 <__moddi3+0x30>

0000000080000134 <__divdi3>:
    80000134:	06054063          	bltz	a0,80000194 <__umoddi3+0x10>
    80000138:	0605c663          	bltz	a1,800001a4 <__umoddi3+0x20>

000000008000013c <__udivdi3>:
    8000013c:	00058613          	mv	a2,a1
    80000140:	00050593          	mv	a1,a0
    80000144:	fff00513          	li	a0,-1
    80000148:	02060c63          	beqz	a2,80000180 <__udivdi3+0x44>
    8000014c:	00100693          	li	a3,1
    80000150:	00b67a63          	bgeu	a2,a1,80000164 <__udivdi3+0x28>
    80000154:	00c05863          	blez	a2,80000164 <__udivdi3+0x28>
    80000158:	00161613          	slli	a2,a2,0x1
    8000015c:	00169693          	slli	a3,a3,0x1
    80000160:	feb66ae3          	bltu	a2,a1,80000154 <__udivdi3+0x18>
    80000164:	00000513          	li	a0,0
    80000168:	00c5e663          	bltu	a1,a2,80000174 <__udivdi3+0x38>
    8000016c:	40c585b3          	sub	a1,a1,a2
    80000170:	00d56533          	or	a0,a0,a3
    80000174:	0016d693          	srli	a3,a3,0x1
    80000178:	00165613          	srli	a2,a2,0x1
    8000017c:	fe0696e3          	bnez	a3,80000168 <__udivdi3+0x2c>
    80000180:	00008067          	ret

0000000080000184 <__umoddi3>:
    80000184:	00008293          	mv	t0,ra
    80000188:	fb5ff0ef          	jal	ra,8000013c <__udivdi3>
    8000018c:	00058513          	mv	a0,a1
    80000190:	00028067          	jr	t0
    80000194:	40a00533          	neg	a0,a0
    80000198:	00b04863          	bgtz	a1,800001a8 <__umoddi3+0x24>
    8000019c:	40b005b3          	neg	a1,a1
    800001a0:	f9dff06f          	j	8000013c <__udivdi3>
    800001a4:	40b005b3          	neg	a1,a1
    800001a8:	00008293          	mv	t0,ra
    800001ac:	f91ff0ef          	jal	ra,8000013c <__udivdi3>
    800001b0:	40a00533          	neg	a0,a0
    800001b4:	00028067          	jr	t0

00000000800001b8 <__moddi3>:
    800001b8:	00008293          	mv	t0,ra
    800001bc:	0005ca63          	bltz	a1,800001d0 <__moddi3+0x18>
    800001c0:	00054c63          	bltz	a0,800001d8 <__moddi3+0x20>
    800001c4:	f79ff0ef          	jal	ra,8000013c <__udivdi3>
    800001c8:	00058513          	mv	a0,a1
    800001cc:	00028067          	jr	t0
    800001d0:	40b005b3          	neg	a1,a1
    800001d4:	fe0558e3          	bgez	a0,800001c4 <__moddi3+0xc>
    800001d8:	40a00533          	neg	a0,a0
    800001dc:	f61ff0ef          	jal	ra,8000013c <__udivdi3>
    800001e0:	40b00533          	neg	a0,a1
    800001e4:	00028067          	jr	t0
    800001e8:	01f29293          	slli	t0,t0,0x1f
    800001ec:	f45514e3          	bne	a0,t0,80000134 <__divdi3>
    800001f0:	00008067          	ret
