
/home/steven/p1_2021ysyx/code/am-kernels/tests/cpu-tests/build/max-riscv64-mycpu.elf:     file format elf64-littleriscv


Disassembly of section .text:

0000000080000000 <_start>:
    80000000:	00000413          	li	s0,0
    80000004:	00009117          	auipc	sp,0x9
    80000008:	ffc10113          	addi	sp,sp,-4 # 80009000 <_end>
    8000000c:	10c000ef          	jal	ra,80000118 <_trm_init>

0000000080000010 <check>:
    80000010:	00050463          	beqz	a0,80000018 <check+0x8>
    80000014:	00008067          	ret
    80000018:	ff010113          	addi	sp,sp,-16
    8000001c:	00100513          	li	a0,1
    80000020:	00113423          	sd	ra,8(sp)
    80000024:	0e8000ef          	jal	ra,8000010c <halt>

0000000080000028 <main>:
    80000028:	fa010113          	addi	sp,sp,-96
    8000002c:	01813823          	sd	s8,16(sp)
    80000030:	00000c17          	auipc	s8,0x0
    80000034:	210c0c13          	addi	s8,s8,528 # 80000240 <test_data>
    80000038:	03313c23          	sd	s3,56(sp)
    8000003c:	03513423          	sd	s5,40(sp)
    80000040:	03613023          	sd	s6,32(sp)
    80000044:	01713c23          	sd	s7,24(sp)
    80000048:	01913423          	sd	s9,8(sp)
    8000004c:	04113c23          	sd	ra,88(sp)
    80000050:	04813823          	sd	s0,80(sp)
    80000054:	04913423          	sd	s1,72(sp)
    80000058:	05213023          	sd	s2,64(sp)
    8000005c:	03413823          	sd	s4,48(sp)
    80000060:	00000b97          	auipc	s7,0x0
    80000064:	0e0b8b93          	addi	s7,s7,224 # 80000140 <ans>
    80000068:	000c0b13          	mv	s6,s8
    8000006c:	00000a93          	li	s5,0
    80000070:	00000997          	auipc	s3,0x0
    80000074:	1f098993          	addi	s3,s3,496 # 80000260 <_bss_start>
    80000078:	04000c93          	li	s9,64
    8000007c:	000b2903          	lw	s2,0(s6)
    80000080:	000b8493          	mv	s1,s7
    80000084:	000c0413          	mv	s0,s8
    80000088:	00090a13          	mv	s4,s2
    8000008c:	00042503          	lw	a0,0(s0)
    80000090:	00440413          	addi	s0,s0,4
    80000094:	01255463          	bge	a0,s2,8000009c <main+0x74>
    80000098:	000a0513          	mv	a0,s4
    8000009c:	0004a783          	lw	a5,0(s1)
    800000a0:	00448493          	addi	s1,s1,4
    800000a4:	40f50533          	sub	a0,a0,a5
    800000a8:	00153513          	seqz	a0,a0
    800000ac:	f65ff0ef          	jal	ra,80000010 <check>
    800000b0:	fc899ee3          	bne	s3,s0,8000008c <main+0x64>
    800000b4:	00100513          	li	a0,1
    800000b8:	008a8a9b          	addiw	s5,s5,8
    800000bc:	f55ff0ef          	jal	ra,80000010 <check>
    800000c0:	004b0b13          	addi	s6,s6,4
    800000c4:	020b8b93          	addi	s7,s7,32
    800000c8:	fb9a9ae3          	bne	s5,s9,8000007c <main+0x54>
    800000cc:	00100513          	li	a0,1
    800000d0:	f41ff0ef          	jal	ra,80000010 <check>
    800000d4:	05813083          	ld	ra,88(sp)
    800000d8:	05013403          	ld	s0,80(sp)
    800000dc:	04813483          	ld	s1,72(sp)
    800000e0:	04013903          	ld	s2,64(sp)
    800000e4:	03813983          	ld	s3,56(sp)
    800000e8:	03013a03          	ld	s4,48(sp)
    800000ec:	02813a83          	ld	s5,40(sp)
    800000f0:	02013b03          	ld	s6,32(sp)
    800000f4:	01813b83          	ld	s7,24(sp)
    800000f8:	01013c03          	ld	s8,16(sp)
    800000fc:	00813c83          	ld	s9,8(sp)
    80000100:	00000513          	li	a0,0
    80000104:	06010113          	addi	sp,sp,96
    80000108:	00008067          	ret

000000008000010c <halt>:
    8000010c:	00050513          	mv	a0,a0
    80000110:	0000006b          	0x6b
    80000114:	0000006f          	j	80000114 <halt+0x8>

0000000080000118 <_trm_init>:
    80000118:	ff010113          	addi	sp,sp,-16
    8000011c:	00000517          	auipc	a0,0x0
    80000120:	01c50513          	addi	a0,a0,28 # 80000138 <_etext>
    80000124:	00113423          	sd	ra,8(sp)
    80000128:	f01ff0ef          	jal	ra,80000028 <main>
    8000012c:	00050513          	mv	a0,a0
    80000130:	0000006b          	0x6b
    80000134:	0000006f          	j	80000134 <_trm_init+0x1c>
