
/home/steven/p1_2021ysyx/code/am-kernels/tests/cpu-tests/build/mul-longlong-riscv64-mycpu.elf:     file format elf64-littleriscv


Disassembly of section .text:

0000000080000000 <_start>:
    80000000:	00000413          	li	s0,0
    80000004:	00009117          	auipc	sp,0x9
    80000008:	ffc10113          	addi	sp,sp,-4 # 80009000 <_end>
    8000000c:	134000ef          	jal	ra,80000140 <_trm_init>

0000000080000010 <check>:
    80000010:	00050463          	beqz	a0,80000018 <check+0x8>
    80000014:	00008067          	ret
    80000018:	ff010113          	addi	sp,sp,-16
    8000001c:	00100513          	li	a0,1
    80000020:	00113423          	sd	ra,8(sp)
    80000024:	110000ef          	jal	ra,80000134 <halt>

0000000080000028 <main>:
    80000028:	fa010113          	addi	sp,sp,-96
    8000002c:	04913423          	sd	s1,72(sp)
    80000030:	03313c23          	sd	s3,56(sp)
    80000034:	03413823          	sd	s4,48(sp)
    80000038:	03513423          	sd	s5,40(sp)
    8000003c:	03613023          	sd	s6,32(sp)
    80000040:	01713c23          	sd	s7,24(sp)
    80000044:	01813823          	sd	s8,16(sp)
    80000048:	00000993          	li	s3,0
    8000004c:	04113c23          	sd	ra,88(sp)
    80000050:	04813823          	sd	s0,80(sp)
    80000054:	05213023          	sd	s2,64(sp)
    80000058:	01913423          	sd	s9,8(sp)
    8000005c:	00400a13          	li	s4,4
    80000060:	00000b17          	auipc	s6,0x0
    80000064:	180b0b13          	addi	s6,s6,384 # 800001e0 <test_data>
    80000068:	00000a93          	li	s5,0
    8000006c:	00000c17          	auipc	s8,0x0
    80000070:	124c0c13          	addi	s8,s8,292 # 80000190 <ans>
    80000074:	00300b93          	li	s7,3
    80000078:	0009849b          	sext.w	s1,s3
    8000007c:	07498663          	beq	s3,s4,800000e8 <main+0xc0>
    80000080:	000b2503          	lw	a0,0(s6)
    80000084:	003a9413          	slli	s0,s5,0x3
    80000088:	008c0433          	add	s0,s8,s0
    8000008c:	00050c93          	mv	s9,a0
    80000090:	000b0913          	mv	s2,s6
    80000094:	000c8593          	mv	a1,s9
    80000098:	0c8000ef          	jal	ra,80000160 <__muldi3>
    8000009c:	00043783          	ld	a5,0(s0)
    800000a0:	0014849b          	addiw	s1,s1,1
    800000a4:	00490913          	addi	s2,s2,4
    800000a8:	40a78533          	sub	a0,a5,a0
    800000ac:	00153513          	seqz	a0,a0
    800000b0:	f61ff0ef          	jal	ra,80000010 <check>
    800000b4:	00840413          	addi	s0,s0,8
    800000b8:	01448663          	beq	s1,s4,800000c4 <main+0x9c>
    800000bc:	00092503          	lw	a0,0(s2)
    800000c0:	fd5ff06f          	j	80000094 <main+0x6c>
    800000c4:	004a8a9b          	addiw	s5,s5,4
    800000c8:	00100513          	li	a0,1
    800000cc:	413a8abb          	subw	s5,s5,s3
    800000d0:	f41ff0ef          	jal	ra,80000010 <check>
    800000d4:	03798063          	beq	s3,s7,800000f4 <main+0xcc>
    800000d8:	0019899b          	addiw	s3,s3,1
    800000dc:	004b0b13          	addi	s6,s6,4
    800000e0:	0009849b          	sext.w	s1,s3
    800000e4:	f9499ee3          	bne	s3,s4,80000080 <main+0x58>
    800000e8:	00100513          	li	a0,1
    800000ec:	f25ff0ef          	jal	ra,80000010 <check>
    800000f0:	fe9ff06f          	j	800000d8 <main+0xb0>
    800000f4:	00100513          	li	a0,1
    800000f8:	f19ff0ef          	jal	ra,80000010 <check>
    800000fc:	05813083          	ld	ra,88(sp)
    80000100:	05013403          	ld	s0,80(sp)
    80000104:	04813483          	ld	s1,72(sp)
    80000108:	04013903          	ld	s2,64(sp)
    8000010c:	03813983          	ld	s3,56(sp)
    80000110:	03013a03          	ld	s4,48(sp)
    80000114:	02813a83          	ld	s5,40(sp)
    80000118:	02013b03          	ld	s6,32(sp)
    8000011c:	01813b83          	ld	s7,24(sp)
    80000120:	01013c03          	ld	s8,16(sp)
    80000124:	00813c83          	ld	s9,8(sp)
    80000128:	00000513          	li	a0,0
    8000012c:	06010113          	addi	sp,sp,96
    80000130:	00008067          	ret

0000000080000134 <halt>:
    80000134:	00050513          	mv	a0,a0
    80000138:	0000006b          	0x6b
    8000013c:	0000006f          	j	8000013c <halt+0x8>

0000000080000140 <_trm_init>:
    80000140:	ff010113          	addi	sp,sp,-16
    80000144:	00000517          	auipc	a0,0x0
    80000148:	04450513          	addi	a0,a0,68 # 80000188 <mainargs>
    8000014c:	00113423          	sd	ra,8(sp)
    80000150:	ed9ff0ef          	jal	ra,80000028 <main>
    80000154:	00050513          	mv	a0,a0
    80000158:	0000006b          	0x6b
    8000015c:	0000006f          	j	8000015c <_trm_init+0x1c>

0000000080000160 <__muldi3>:
    80000160:	00050613          	mv	a2,a0
    80000164:	00000513          	li	a0,0
    80000168:	0015f693          	andi	a3,a1,1
    8000016c:	00068463          	beqz	a3,80000174 <__muldi3+0x14>
    80000170:	00c50533          	add	a0,a0,a2
    80000174:	0015d593          	srli	a1,a1,0x1
    80000178:	00161613          	slli	a2,a2,0x1
    8000017c:	fe0596e3          	bnez	a1,80000168 <__muldi3+0x8>
    80000180:	00008067          	ret
