
/home/steven/p1_2021ysyx/code/am-kernels/tests/cpu-tests/build/wanshu-riscv64-mycpu.elf:     file format elf64-littleriscv


Disassembly of section .text:

0000000080000000 <_start>:
    80000000:	00000413          	li	s0,0
    80000004:	00009117          	auipc	sp,0x9
    80000008:	ffc10113          	addi	sp,sp,-4 # 80009000 <_end>
    8000000c:	104000ef          	jal	ra,80000110 <_trm_init>

0000000080000010 <check>:
    80000010:	00050463          	beqz	a0,80000018 <check+0x8>
    80000014:	00008067          	ret
    80000018:	ff010113          	addi	sp,sp,-16
    8000001c:	00100513          	li	a0,1
    80000020:	00113423          	sd	ra,8(sp)
    80000024:	0e0000ef          	jal	ra,80000104 <halt>

0000000080000028 <main>:
    80000028:	fc010113          	addi	sp,sp,-64
    8000002c:	03213023          	sd	s2,32(sp)
    80000030:	00100913          	li	s2,1
    80000034:	02913423          	sd	s1,40(sp)
    80000038:	01413823          	sd	s4,16(sp)
    8000003c:	01513423          	sd	s5,8(sp)
    80000040:	01613023          	sd	s6,0(sp)
    80000044:	02113c23          	sd	ra,56(sp)
    80000048:	02813823          	sd	s0,48(sp)
    8000004c:	01313c23          	sd	s3,24(sp)
    80000050:	01e00a13          	li	s4,30
    80000054:	0019049b          	addiw	s1,s2,1
    80000058:	00000a93          	li	s5,0
    8000005c:	00000b17          	auipc	s6,0x0
    80000060:	1dcb0b13          	addi	s6,s6,476 # 80000238 <ans>
    80000064:	05448263          	beq	s1,s4,800000a8 <main+0x80>
    80000068:	00100413          	li	s0,1
    8000006c:	00000993          	li	s3,0
    80000070:	0080006f          	j	80000078 <main+0x50>
    80000074:	00078413          	mv	s0,a5
    80000078:	00040593          	mv	a1,s0
    8000007c:	00048513          	mv	a0,s1
    80000080:	174000ef          	jal	ra,800001f4 <__moddi3>
    80000084:	0005051b          	sext.w	a0,a0
    80000088:	00051463          	bnez	a0,80000090 <main+0x68>
    8000008c:	013409bb          	addw	s3,s0,s3
    80000090:	0014079b          	addiw	a5,s0,1
    80000094:	ff2410e3          	bne	s0,s2,80000074 <main+0x4c>
    80000098:	04998463          	beq	s3,s1,800000e0 <main+0xb8>
    8000009c:	00048913          	mv	s2,s1
    800000a0:	0019049b          	addiw	s1,s2,1
    800000a4:	fd4492e3          	bne	s1,s4,80000068 <main+0x40>
    800000a8:	ffea8513          	addi	a0,s5,-2
    800000ac:	00153513          	seqz	a0,a0
    800000b0:	f61ff0ef          	jal	ra,80000010 <check>
    800000b4:	03813083          	ld	ra,56(sp)
    800000b8:	03013403          	ld	s0,48(sp)
    800000bc:	02813483          	ld	s1,40(sp)
    800000c0:	02013903          	ld	s2,32(sp)
    800000c4:	01813983          	ld	s3,24(sp)
    800000c8:	01013a03          	ld	s4,16(sp)
    800000cc:	00813a83          	ld	s5,8(sp)
    800000d0:	00013b03          	ld	s6,0(sp)
    800000d4:	00000513          	li	a0,0
    800000d8:	04010113          	addi	sp,sp,64
    800000dc:	00008067          	ret
    800000e0:	002a9793          	slli	a5,s5,0x2
    800000e4:	00fb07b3          	add	a5,s6,a5
    800000e8:	0007a503          	lw	a0,0(a5)
    800000ec:	001a8a9b          	addiw	s5,s5,1
    800000f0:	00048913          	mv	s2,s1
    800000f4:	40950533          	sub	a0,a0,s1
    800000f8:	00153513          	seqz	a0,a0
    800000fc:	f15ff0ef          	jal	ra,80000010 <check>
    80000100:	fa1ff06f          	j	800000a0 <main+0x78>

0000000080000104 <halt>:
    80000104:	00050513          	mv	a0,a0
    80000108:	0000006b          	0x6b
    8000010c:	0000006f          	j	8000010c <halt+0x8>

0000000080000110 <_trm_init>:
    80000110:	ff010113          	addi	sp,sp,-16
    80000114:	00000517          	auipc	a0,0x0
    80000118:	11c50513          	addi	a0,a0,284 # 80000230 <_etext>
    8000011c:	00113423          	sd	ra,8(sp)
    80000120:	f09ff0ef          	jal	ra,80000028 <main>
    80000124:	00050513          	mv	a0,a0
    80000128:	0000006b          	0x6b
    8000012c:	0000006f          	j	8000012c <_trm_init+0x1c>

0000000080000130 <__udivsi3>:
    80000130:	02051513          	slli	a0,a0,0x20
    80000134:	02059593          	slli	a1,a1,0x20
    80000138:	00008293          	mv	t0,ra
    8000013c:	03c000ef          	jal	ra,80000178 <__udivdi3>
    80000140:	0005051b          	sext.w	a0,a0
    80000144:	00028067          	jr	t0

0000000080000148 <__umodsi3>:
    80000148:	02051513          	slli	a0,a0,0x20
    8000014c:	02059593          	slli	a1,a1,0x20
    80000150:	02055513          	srli	a0,a0,0x20
    80000154:	0205d593          	srli	a1,a1,0x20
    80000158:	00008293          	mv	t0,ra
    8000015c:	01c000ef          	jal	ra,80000178 <__udivdi3>
    80000160:	0005851b          	sext.w	a0,a1
    80000164:	00028067          	jr	t0

0000000080000168 <__divsi3>:
    80000168:	fff00293          	li	t0,-1
    8000016c:	0a558c63          	beq	a1,t0,80000224 <__moddi3+0x30>

0000000080000170 <__divdi3>:
    80000170:	06054063          	bltz	a0,800001d0 <__umoddi3+0x10>
    80000174:	0605c663          	bltz	a1,800001e0 <__umoddi3+0x20>

0000000080000178 <__udivdi3>:
    80000178:	00058613          	mv	a2,a1
    8000017c:	00050593          	mv	a1,a0
    80000180:	fff00513          	li	a0,-1
    80000184:	02060c63          	beqz	a2,800001bc <__udivdi3+0x44>
    80000188:	00100693          	li	a3,1
    8000018c:	00b67a63          	bgeu	a2,a1,800001a0 <__udivdi3+0x28>
    80000190:	00c05863          	blez	a2,800001a0 <__udivdi3+0x28>
    80000194:	00161613          	slli	a2,a2,0x1
    80000198:	00169693          	slli	a3,a3,0x1
    8000019c:	feb66ae3          	bltu	a2,a1,80000190 <__udivdi3+0x18>
    800001a0:	00000513          	li	a0,0
    800001a4:	00c5e663          	bltu	a1,a2,800001b0 <__udivdi3+0x38>
    800001a8:	40c585b3          	sub	a1,a1,a2
    800001ac:	00d56533          	or	a0,a0,a3
    800001b0:	0016d693          	srli	a3,a3,0x1
    800001b4:	00165613          	srli	a2,a2,0x1
    800001b8:	fe0696e3          	bnez	a3,800001a4 <__udivdi3+0x2c>
    800001bc:	00008067          	ret

00000000800001c0 <__umoddi3>:
    800001c0:	00008293          	mv	t0,ra
    800001c4:	fb5ff0ef          	jal	ra,80000178 <__udivdi3>
    800001c8:	00058513          	mv	a0,a1
    800001cc:	00028067          	jr	t0
    800001d0:	40a00533          	neg	a0,a0
    800001d4:	00b04863          	bgtz	a1,800001e4 <__umoddi3+0x24>
    800001d8:	40b005b3          	neg	a1,a1
    800001dc:	f9dff06f          	j	80000178 <__udivdi3>
    800001e0:	40b005b3          	neg	a1,a1
    800001e4:	00008293          	mv	t0,ra
    800001e8:	f91ff0ef          	jal	ra,80000178 <__udivdi3>
    800001ec:	40a00533          	neg	a0,a0
    800001f0:	00028067          	jr	t0

00000000800001f4 <__moddi3>:
    800001f4:	00008293          	mv	t0,ra
    800001f8:	0005ca63          	bltz	a1,8000020c <__moddi3+0x18>
    800001fc:	00054c63          	bltz	a0,80000214 <__moddi3+0x20>
    80000200:	f79ff0ef          	jal	ra,80000178 <__udivdi3>
    80000204:	00058513          	mv	a0,a1
    80000208:	00028067          	jr	t0
    8000020c:	40b005b3          	neg	a1,a1
    80000210:	fe0558e3          	bgez	a0,80000200 <__moddi3+0xc>
    80000214:	40a00533          	neg	a0,a0
    80000218:	f61ff0ef          	jal	ra,80000178 <__udivdi3>
    8000021c:	40b00533          	neg	a0,a1
    80000220:	00028067          	jr	t0
    80000224:	01f29293          	slli	t0,t0,0x1f
    80000228:	f45514e3          	bne	a0,t0,80000170 <__divdi3>
    8000022c:	00008067          	ret
